
kernel.elf:	file format elf64-littleaarch64

Disassembly of section .text:

0000000000080000 <boot>:
   80000: 58000088     	ldr	x8, 0x80010 <boot+0x10>
   80004: 9100011f     	mov	sp, x8
   80008: 9400003d     	bl	0x800fc <kernel_main>
   8000c: 00000000     	udf	#0x0

0000000000080010 <$d.3>:
   80010: b0 03 18 00  	.word	0x001803b0
   80014: 00 00 00 00  	.word	0x00000000

0000000000080018 <putchar>:
   80018: 52820008     	mov	w8, #0x1000             // =4096
   8001c: 72a7e408     	movk	w8, #0x3f20, lsl #16
   80020: b9401909     	ldr	w9, [x8, #0x18]
   80024: 372fffe9     	tbnz	w9, #0x5, 0x80020 <putchar+0x8>
   80028: 12001c09     	and	w9, w0, #0xff
   8002c: b9000109     	str	w9, [x8]
   80030: d65f03c0     	ret

0000000000080034 <print_string>:
   80034: 39400008     	ldrb	w8, [x0]
   80038: 34000108     	cbz	w8, 0x80058 <print_string+0x24>
   8003c: 52820009     	mov	w9, #0x1000             // =4096
   80040: 72a7e409     	movk	w9, #0x3f20, lsl #16
   80044: b940192a     	ldr	w10, [x9, #0x18]
   80048: 372fffea     	tbnz	w10, #0x5, 0x80044 <print_string+0x10>
   8004c: b9000128     	str	w8, [x9]
   80050: 38401c08     	ldrb	w8, [x0, #0x1]!
   80054: 35ffff88     	cbnz	w8, 0x80044 <print_string+0x10>
   80058: d65f03c0     	ret

000000000008005c <memset>:
   8005c: b40004e2     	cbz	x2, 0x800f8 <memset+0x9c>
   80060: f100205f     	cmp	x2, #0x8
   80064: 54000082     	b.hs	0x80074 <memset+0x18>
   80068: aa0003e9     	mov	x9, x0
   8006c: aa0203e8     	mov	x8, x2
   80070: 1400001f     	b	0x800ec <memset+0x90>
   80074: f100805f     	cmp	x2, #0x20
   80078: 54000062     	b.hs	0x80084 <memset+0x28>
   8007c: aa1f03ea     	mov	x10, xzr
   80080: 1400000d     	b	0x800b4 <memset+0x58>
   80084: 927be84a     	and	x10, x2, #0xffffffffffffffe0
   80088: 91004008     	add	x8, x0, #0x10
   8008c: aa0a03e9     	mov	x9, x10
   80090: 4e010c20     	dup	v0.16b, w1
   80094: ad3f8100     	stp	q0, q0, [x8, #-0x10]
   80098: 91008108     	add	x8, x8, #0x20
   8009c: f1008129     	subs	x9, x9, #0x20
   800a0: 54ffffa1     	b.ne	0x80094 <memset+0x38>
   800a4: eb02015f     	cmp	x10, x2
   800a8: 54000280     	b.eq	0x800f8 <memset+0x9c>
   800ac: f27d045f     	tst	x2, #0x18
   800b0: 540001a0     	b.eq	0x800e4 <memset+0x88>
   800b4: 927df04b     	and	x11, x2, #0xfffffffffffffff8
   800b8: 0e010c20     	dup	v0.8b, w1
   800bc: 92400848     	and	x8, x2, #0x7
   800c0: 8b0b0009     	add	x9, x0, x11
   800c4: 8b0a000c     	add	x12, x0, x10
   800c8: cb0b014a     	sub	x10, x10, x11
   800cc: b100214a     	adds	x10, x10, #0x8
   800d0: fc008580     	str	d0, [x12], #0x8
   800d4: 54ffffc1     	b.ne	0x800cc <memset+0x70>
   800d8: eb02017f     	cmp	x11, x2
   800dc: 54000081     	b.ne	0x800ec <memset+0x90>
   800e0: 14000006     	b	0x800f8 <memset+0x9c>
   800e4: 92401048     	and	x8, x2, #0x1f
   800e8: 8b0a0009     	add	x9, x0, x10
   800ec: f1000508     	subs	x8, x8, #0x1
   800f0: 38001521     	strb	w1, [x9], #0x1
   800f4: 54ffffc1     	b.ne	0x800ec <memset+0x90>
   800f8: d65f03c0     	ret

00000000000800fc <kernel_main>:
   800fc: d53800a8     	mrs	x8, MPIDR_EL1
   80100: f240051f     	tst	x8, #0x3
   80104: 54000040     	b.eq	0x8010c <kernel_main+0x10>
   80108: 14000000     	b	0x80108 <kernel_main+0xc>
   8010c: a9bf7bfd     	stp	x29, x30, [sp, #-0x10]!
   80110: 910003fd     	mov	x29, sp
   80114: d503201f     	nop
   80118: 10001380     	adr	x0, 0x80388 <kernel.c+0x80388>
   8011c: 52800f61     	mov	w1, #0x7b               // =123
   80120: 94000003     	bl	0x8012c <printf>
   80124: a8c17bfd     	ldp	x29, x30, [sp], #0x10
   80128: 14000000     	b	0x80128 <kernel_main+0x2c>

000000000008012c <printf>:
   8012c: d104c3ff     	sub	sp, sp, #0x130
   80130: a90e7bfd     	stp	x29, x30, [sp, #0xe0]
   80134: f9007bfc     	str	x28, [sp, #0xf0]
   80138: a9105ff8     	stp	x24, x23, [sp, #0x100]
   8013c: a91157f6     	stp	x22, x21, [sp, #0x110]
   80140: a9124ff4     	stp	x20, x19, [sp, #0x120]
   80144: 910383fd     	add	x29, sp, #0xe0
   80148: 910003e8     	mov	x8, sp
   8014c: 928006e9     	mov	x9, #-0x38              // =-56
   80150: d10163aa     	sub	x10, x29, #0x58
   80154: 529999b4     	mov	w20, #0xcccd            // =52429
   80158: aa0003f3     	mov	x19, x0
   8015c: f2dff009     	movk	x9, #0xff80, lsl #32
   80160: 91020108     	add	x8, x8, #0x80
   80164: 9100e14a     	add	x10, x10, #0x38
   80168: 910143ab     	add	x11, x29, #0x50
   8016c: 72b99994     	movk	w20, #0xcccc, lsl #16
   80170: d503201f     	nop
   80174: 30001135     	adr	x21, 0x80399 <kernel.c+0x80399>
   80178: a93b93a3     	stp	x3, x4, [x29, #-0x48]
   8017c: a93a8ba1     	stp	x1, x2, [x29, #-0x58]
   80180: a93c9ba5     	stp	x5, x6, [x29, #-0x38]
   80184: f81d83a7     	stur	x7, [x29, #-0x28]
   80188: ad0007e0     	stp	q0, q1, [sp]
   8018c: ad010fe2     	stp	q2, q3, [sp, #0x20]
   80190: ad0217e4     	stp	q4, q5, [sp, #0x40]
   80194: ad031fe6     	stp	q6, q7, [sp, #0x60]
   80198: a93f27a8     	stp	x8, x9, [x29, #-0x10]
   8019c: a93e2bab     	stp	x11, x10, [x29, #-0x20]
   801a0: 14000004     	b	0x801b0 <printf+0x84>
   801a4: 34000e40     	cbz	w0, 0x8036c <printf+0x240>
   801a8: 97ffff9c     	bl	0x80018 <putchar>
   801ac: 91000673     	add	x19, x19, #0x1
   801b0: 39400260     	ldrb	w0, [x19]
   801b4: 7100941f     	cmp	w0, #0x25
   801b8: 54ffff61     	b.ne	0x801a4 <printf+0x78>
   801bc: 38401e60     	ldrb	w0, [x19, #0x1]!
   801c0: 7101c81f     	cmp	w0, #0x72
   801c4: 5400020c     	b.gt	0x80204 <printf+0xd8>
   801c8: 7100941f     	cmp	w0, #0x25
   801cc: 54fffee0     	b.eq	0x801a8 <printf+0x7c>
   801d0: 7101901f     	cmp	w0, #0x64
   801d4: 54000c61     	b.ne	0x80360 <printf+0x234>
   801d8: b89f83a8     	ldursw	x8, [x29, #-0x8]
   801dc: 36f80408     	tbz	w8, #0x1f, 0x8025c <printf+0x130>
   801e0: 11002109     	add	w9, w8, #0x8
   801e4: 3100211f     	cmn	w8, #0x8
   801e8: b81f83a9     	stur	w9, [x29, #-0x8]
   801ec: 54000388     	b.hi	0x8025c <printf+0x130>
   801f0: f85e83a9     	ldur	x9, [x29, #-0x18]
   801f4: 8b080128     	add	x8, x9, x8
   801f8: b9400116     	ldr	w22, [x8]
   801fc: 36f80416     	tbz	w22, #0x1f, 0x8027c <printf+0x150>
   80200: 1400001c     	b	0x80270 <printf+0x144>
   80204: 7101cc1f     	cmp	w0, #0x73
   80208: 54000180     	b.eq	0x80238 <printf+0x10c>
   8020c: 7101e01f     	cmp	w0, #0x78
   80210: 54fffce1     	b.ne	0x801ac <printf+0x80>
   80214: b89f83a8     	ldursw	x8, [x29, #-0x8]
   80218: 36f80568     	tbz	w8, #0x1f, 0x802c4 <printf+0x198>
   8021c: 11002109     	add	w9, w8, #0x8
   80220: 3100211f     	cmn	w8, #0x8
   80224: b81f83a9     	stur	w9, [x29, #-0x8]
   80228: 540004e8     	b.hi	0x802c4 <printf+0x198>
   8022c: f85e83a9     	ldur	x9, [x29, #-0x18]
   80230: 8b080128     	add	x8, x9, x8
   80234: 14000027     	b	0x802d0 <printf+0x1a4>
   80238: b89f83a8     	ldursw	x8, [x29, #-0x8]
   8023c: 36f807c8     	tbz	w8, #0x1f, 0x80334 <printf+0x208>
   80240: 11002109     	add	w9, w8, #0x8
   80244: 3100211f     	cmn	w8, #0x8
   80248: b81f83a9     	stur	w9, [x29, #-0x8]
   8024c: 54000748     	b.hi	0x80334 <printf+0x208>
   80250: f85e83a9     	ldur	x9, [x29, #-0x18]
   80254: 8b080128     	add	x8, x9, x8
   80258: 1400003a     	b	0x80340 <printf+0x214>
   8025c: f85e03a8     	ldur	x8, [x29, #-0x20]
   80260: 91002109     	add	x9, x8, #0x8
   80264: f81e03a9     	stur	x9, [x29, #-0x20]
   80268: b9400116     	ldr	w22, [x8]
   8026c: 36f80096     	tbz	w22, #0x1f, 0x8027c <printf+0x150>
   80270: 528005a0     	mov	w0, #0x2d               // =45
   80274: 97ffff69     	bl	0x80018 <putchar>
   80278: 4b1603f6     	neg	w22, w22
   8027c: 52800037     	mov	w23, #0x1               // =1
   80280: 71002adf     	cmp	w22, #0xa
   80284: 540000c3     	b.lo	0x8029c <printf+0x170>
   80288: 0b170ae8     	add	w8, w23, w23, lsl #2
   8028c: 531f7917     	lsl	w23, w8, #1
   80290: 1ad70ec8     	sdiv	w8, w22, w23
   80294: 7100251f     	cmp	w8, #0x9
   80298: 54ffff8c     	b.gt	0x80288 <printf+0x15c>
   8029c: 1ad70ed8     	sdiv	w24, w22, w23
   802a0: 1100c300     	add	w0, w24, #0x30
   802a4: 97ffff5d     	bl	0x80018 <putchar>
   802a8: 9bb47ee8     	umull	x8, w23, w20
   802ac: 71002aff     	cmp	w23, #0xa
   802b0: 1b17db16     	msub	w22, w24, w23, w22
   802b4: d363fd08     	lsr	x8, x8, #35
   802b8: 2a0803f7     	mov	w23, w8
   802bc: 54ffff02     	b.hs	0x8029c <printf+0x170>
   802c0: 17ffffbb     	b	0x801ac <printf+0x80>
   802c4: f85e03a8     	ldur	x8, [x29, #-0x20]
   802c8: 91002109     	add	x9, x8, #0x8
   802cc: f81e03a9     	stur	x9, [x29, #-0x20]
   802d0: b9400116     	ldr	w22, [x8]
   802d4: d35cfec8     	lsr	x8, x22, #28
   802d8: 38686aa0     	ldrb	w0, [x21, x8]
   802dc: 97ffff4f     	bl	0x80018 <putchar>
   802e0: d3586ec8     	ubfx	x8, x22, #24, #4
   802e4: 38686aa0     	ldrb	w0, [x21, x8]
   802e8: 97ffff4c     	bl	0x80018 <putchar>
   802ec: d3545ec8     	ubfx	x8, x22, #20, #4
   802f0: 38686aa0     	ldrb	w0, [x21, x8]
   802f4: 97ffff49     	bl	0x80018 <putchar>
   802f8: d3504ec8     	ubfx	x8, x22, #16, #4
   802fc: 38686aa0     	ldrb	w0, [x21, x8]
   80300: 97ffff46     	bl	0x80018 <putchar>
   80304: d34c3ec8     	ubfx	x8, x22, #12, #4
   80308: 38686aa0     	ldrb	w0, [x21, x8]
   8030c: 97ffff43     	bl	0x80018 <putchar>
   80310: d3482ec8     	ubfx	x8, x22, #8, #4
   80314: 38686aa0     	ldrb	w0, [x21, x8]
   80318: 97ffff40     	bl	0x80018 <putchar>
   8031c: d3441ec8     	ubfx	x8, x22, #4, #4
   80320: 38686aa0     	ldrb	w0, [x21, x8]
   80324: 97ffff3d     	bl	0x80018 <putchar>
   80328: 92400ec8     	and	x8, x22, #0xf
   8032c: 38686aa0     	ldrb	w0, [x21, x8]
   80330: 17ffff9e     	b	0x801a8 <printf+0x7c>
   80334: f85e03a8     	ldur	x8, [x29, #-0x20]
   80338: 91002109     	add	x9, x8, #0x8
   8033c: f81e03a9     	stur	x9, [x29, #-0x20]
   80340: f9400108     	ldr	x8, [x8]
   80344: 39400100     	ldrb	w0, [x8]
   80348: 34fff320     	cbz	w0, 0x801ac <printf+0x80>
   8034c: 91000516     	add	x22, x8, #0x1
   80350: 97ffff32     	bl	0x80018 <putchar>
   80354: 384016c0     	ldrb	w0, [x22], #0x1
   80358: 35ffffc0     	cbnz	w0, 0x80350 <printf+0x224>
   8035c: 17ffff94     	b	0x801ac <printf+0x80>
   80360: 35fff260     	cbnz	w0, 0x801ac <printf+0x80>
   80364: 528004a0     	mov	w0, #0x25               // =37
   80368: 97ffff2c     	bl	0x80018 <putchar>
   8036c: a9524ff4     	ldp	x20, x19, [sp, #0x120]
   80370: a95157f6     	ldp	x22, x21, [sp, #0x110]
   80374: a9505ff8     	ldp	x24, x23, [sp, #0x100]
   80378: a94e7bfd     	ldp	x29, x30, [sp, #0xe0]
   8037c: f9407bfc     	ldr	x28, [sp, #0xf0]
   80380: 9104c3ff     	add	sp, sp, #0x130
   80384: d65f03c0     	ret
